target datalayout = "e-m:e-p270:32:32-p271:32:32-p272:64:64-i64:64-i128:128-f80:128-n8:16:32:64-S128"
target triple = "x86_64-pc-linux-gnu"

%struct.DdTlcInfo = type { ptr, ptr, i32 }

; Function Attrs: nounwind uwtable
define internal signext i16 @bitVectorRead(ptr noundef %0, i32 noundef %1) #0 {
  %3 = alloca i16, align 2
  %4 = alloca ptr, align 8
  %5 = alloca i32, align 4
  %6 = alloca i32, align 4
  %7 = alloca i32, align 4
  %8 = alloca i16, align 2
  store ptr %0, ptr %4, align 8
  store i32 %1, ptr %5, align 4
  %9 = load ptr, ptr %4, align 8
  %10 = icmp eq ptr %9, null
  br i1 %10, label %11, label %12

11:                                               ; preds = %2
  store i16 0, ptr %3, align 2
  br label %28

12:                                               ; preds = %2
  %13 = load i32, ptr %5, align 4
  %14 = ashr i32 %13, 6
  store i32 %14, ptr %6, align 4
  %15 = load i32, ptr %5, align 4
  %16 = and i32 %15, 63
  store i32 %16, ptr %7, align 4
  %17 = load ptr, ptr %4, align 8
  %18 = load i32, ptr %6, align 4
  %19 = sext i32 %18 to i64
  %20 = getelementptr inbounds i64, ptr %17, i64 %19
  %21 = load i64, ptr %20, align 8
  %22 = load i32, ptr %7, align 4
  %23 = zext i32 %22 to i64
  %24 = ashr i64 %21, %23
  %25 = and i64 %24, 1
  %26 = trunc i64 %25 to i16
  store i16 %26, ptr %8, align 2
  %27 = load i16, ptr %8, align 2
  store i16 %27, ptr %3, align 2
  br label %28

28:                                               ; preds = %12, %11
  %29 = load i16, ptr %3, align 2
  ret i16 %29
}

; Function Attrs: nounwind uwtable
define i32 @Cudd_ReadIthClause(ptr noundef %0, i32 noundef %1, ptr noundef %2, ptr noundef %3, ptr noundef %4, ptr noundef %5) #0 {
  %7 = alloca i32, align 4
  %8 = alloca ptr, align 8
  %9 = alloca i32, align 4
  %10 = alloca ptr, align 8
  %11 = alloca ptr, align 8
  %12 = alloca ptr, align 8
  %13 = alloca ptr, align 8
  store ptr %0, ptr %8, align 8
  store i32 %1, ptr %9, align 4
  store ptr %2, ptr %10, align 8
  store ptr %3, ptr %11, align 8
  store ptr %4, ptr %12, align 8
  store ptr %5, ptr %13, align 8
  %14 = load ptr, ptr %8, align 8
  %15 = icmp eq ptr %14, null
  br i1 %15, label %16, label %17

16:                                               ; preds = %6
  store i32 0, ptr %7, align 4
  br label %75

17:                                               ; preds = %6
  %18 = load ptr, ptr %8, align 8
  %19 = getelementptr inbounds %struct.DdTlcInfo, ptr %18, i32 0, i32 0
  %20 = load ptr, ptr %19, align 8
  %21 = icmp eq ptr %20, null
  br i1 %21, label %27, label %22

22:                                               ; preds = %17
  %23 = load ptr, ptr %8, align 8
  %24 = getelementptr inbounds %struct.DdTlcInfo, ptr %23, i32 0, i32 1
  %25 = load ptr, ptr %24, align 8
  %26 = icmp eq ptr %25, null
  br i1 %26, label %27, label %28

27:                                               ; preds = %22, %17
  store i32 0, ptr %7, align 4
  br label %75

28:                                               ; preds = %22
  %29 = load i32, ptr %9, align 4
  %30 = icmp slt i32 %29, 0
  br i1 %30, label %37, label %31

31:                                               ; preds = %28
  %32 = load i32, ptr %9, align 4
  %33 = load ptr, ptr %8, align 8
  %34 = getelementptr inbounds %struct.DdTlcInfo, ptr %33, i32 0, i32 2
  %35 = load i32, ptr %34, align 8
  %36 = icmp uge i32 %32, %35
  br i1 %36, label %37, label %38

37:                                               ; preds = %31, %28
  store i32 0, ptr %7, align 4
  br label %75

38:                                               ; preds = %31
  %39 = load ptr, ptr %8, align 8
  %40 = getelementptr inbounds %struct.DdTlcInfo, ptr %39, i32 0, i32 0
  %41 = load ptr, ptr %40, align 8
  %42 = load i32, ptr %9, align 4
  %43 = mul nsw i32 2, %42
  %44 = sext i32 %43 to i64
  %45 = getelementptr inbounds i32, ptr %41, i64 %44
  %46 = load i32, ptr %45, align 4
  %47 = load ptr, ptr %10, align 8
  store i32 %46, ptr %47, align 4
  %48 = load ptr, ptr %8, align 8
  %49 = getelementptr inbounds %struct.DdTlcInfo, ptr %48, i32 0, i32 0
  %50 = load ptr, ptr %49, align 8
  %51 = load i32, ptr %9, align 4
  %52 = mul nsw i32 2, %51
  %53 = add nsw i32 %52, 1
  %54 = sext i32 %53 to i64
  %55 = getelementptr inbounds i32, ptr %50, i64 %54
  %56 = load i32, ptr %55, align 4
  %57 = load ptr, ptr %11, align 8
  store i32 %56, ptr %57, align 4
  %58 = load ptr, ptr %8, align 8
  %59 = getelementptr inbounds %struct.DdTlcInfo, ptr %58, i32 0, i32 1
  %60 = load ptr, ptr %59, align 8
  %61 = load i32, ptr %9, align 4
  %62 = mul nsw i32 2, %61
  %63 = call signext i16 @bitVectorRead(ptr noundef %60, i32 noundef %62)
  %64 = sext i16 %63 to i32
  %65 = load ptr, ptr %12, align 8
  store i32 %64, ptr %65, align 4
  %66 = load ptr, ptr %8, align 8
  %67 = getelementptr inbounds %struct.DdTlcInfo, ptr %66, i32 0, i32 1
  %68 = load ptr, ptr %67, align 8
  %69 = load i32, ptr %9, align 4
  %70 = mul nsw i32 2, %69
  %71 = add nsw i32 %70, 1
  %72 = call signext i16 @bitVectorRead(ptr noundef %68, i32 noundef %71)
  %73 = sext i16 %72 to i32
  %74 = load ptr, ptr %13, align 8
  store i32 %73, ptr %74, align 4
  store i32 1, ptr %7, align 4
  br label %75

75:                                               ; preds = %38, %37, %27, %16
  %76 = load i32, ptr %7, align 4
  ret i32 %76
}