; Function Attrs: mustprogress nofree norecurse nosync nounwind willreturn memory(read, argmem: readwrite, inaccessiblemem: none) uwtable
define range(i32 0, 2) i32 @Cudd_ReadIthClause(ptr noundef readonly %0, i32 noundef %1, ptr noundef writeonly captures(none) %2, ptr noundef writeonly captures(none) %3, ptr noundef writeonly captures(none) %4, ptr noundef writeonly captures(none) %5) local_unnamed_addr #4 {
  %7 = icmp eq ptr %0, null
  br i1 %7, label %53, label %8

8:                                                ; preds = %6
  %9 = load ptr, ptr %0, align 8
  %10 = icmp eq ptr %9, null
  br i1 %10, label %53, label %11

11:                                               ; preds = %8
  %12 = getelementptr inbounds nuw i8, ptr %0, i64 8
  %13 = load ptr, ptr %12, align 8
  %14 = icmp eq ptr %13, null
  %15 = icmp slt i32 %1, 0
  %or.cond = or i1 %15, %14
  br i1 %or.cond, label %53, label %16

16:                                               ; preds = %11
  %17 = getelementptr inbounds nuw i8, ptr %0, i64 16
  %18 = load i32, ptr %17, align 8
  %.not = icmp ult i32 %1, %18
  br i1 %.not, label %19, label %53

19:                                               ; preds = %16
  %20 = shl nuw nsw i32 %1, 1
  %21 = zext nneg i32 %20 to i64
  %22 = getelementptr inbounds nuw i32, ptr %9, i64 %21
  %23 = load i32, ptr %22, align 4
  store i32 %23, ptr %2, align 4
  %24 = load ptr, ptr %0, align 8
  %25 = or disjoint i32 %20, 1
  %26 = zext nneg i32 %25 to i64
  %27 = getelementptr inbounds nuw i32, ptr %24, i64 %26
  %28 = load i32, ptr %27, align 4
  store i32 %28, ptr %3, align 4
  %29 = load ptr, ptr %12, align 8
  %30 = icmp eq ptr %29, null
  br i1 %30, label %bitVectorRead.exit, label %31

31:                                               ; preds = %19
  %32 = lshr i32 %1, 5
  %33 = and i32 %20, 62
  %34 = zext nneg i32 %32 to i64
  %35 = getelementptr inbounds nuw i64, ptr %29, i64 %34
  %36 = load i64, ptr %35, align 8
  %37 = zext nneg i32 %33 to i64
  %38 = lshr i64 %36, %37
  %39 = trunc i64 %38 to i32
  %40 = and i32 %39, 1
  br label %bitVectorRead.exit

bitVectorRead.exit:                               ; preds = %19, %31
  %.0.i = phi i32 [ %40, %31 ], [ 0, %19 ]
  store i32 %.0.i, ptr %4, align 4
  %41 = load ptr, ptr %12, align 8
  %42 = icmp eq ptr %41, null
  br i1 %42, label %bitVectorRead.exit22, label %43

43:                                               ; preds = %bitVectorRead.exit
  %44 = lshr i32 %1, 5
  %45 = and i32 %25, 63
  %46 = zext nneg i32 %44 to i64
  %47 = getelementptr inbounds nuw i64, ptr %41, i64 %46
  %48 = load i64, ptr %47, align 8
  %49 = zext nneg i32 %45 to i64
  %50 = lshr i64 %48, %49
  %51 = trunc i64 %50 to i32
  %52 = and i32 %51, 1
  br label %bitVectorRead.exit22

bitVectorRead.exit22:                             ; preds = %bitVectorRead.exit, %43
  %.0.i21 = phi i32 [ %52, %43 ], [ 0, %bitVectorRead.exit ]
  store i32 %.0.i21, ptr %5, align 4
  br label %53

53:                                               ; preds = %16, %8, %11, %6, %bitVectorRead.exit22
  %.0 = phi i32 [ 1, %bitVectorRead.exit22 ], [ 0, %6 ], [ 0, %11 ], [ 0, %8 ], [ 0, %16 ]
  ret i32 %.0
}